; ModuleID = 'bench/gromacs/original/exceptions.cpp.ll'
source_filename = "bench/gromacs/original/exceptions.cpp.ll"
target datalayout = "e-m:e-p270:32:32-p271:32:32-p272:64:64-i64:64-i128:128-f80:128-n8:16:32:64-S128"
target triple = "x86_64-pc-linux-gnu"

@_ZTVN6gmxapi9ExceptionE = unnamed_addr constant { [5 x ptr] } { [5 x ptr] [ptr null, ptr @_ZTIN6gmxapi9ExceptionE, ptr @_ZN6gmxapi9ExceptionD1Ev, ptr @_ZN6gmxapi9ExceptionD0Ev, ptr @_ZNK6gmxapi9Exception4whatEv] }, align 8
@_ZTVN10__cxxabiv120__si_class_type_infoE = external global [0 x ptr]
@_ZTSN6gmxapi9ExceptionE = constant [20 x i8] c"N6gmxapi9ExceptionE\00", align 1
@_ZTISt9exception = external constant ptr
@_ZTIN6gmxapi9ExceptionE = constant { ptr, ptr, ptr } { ptr getelementptr inbounds (ptr, ptr @_ZTVN10__cxxabiv120__si_class_type_infoE, i64 2), ptr @_ZTSN6gmxapi9ExceptionE, ptr @_ZTISt9exception }, align 8
@.str = private unnamed_addr constant [18 x i8] c"GROMACS API error\00", align 1

@_ZN6gmxapi9ExceptionC1Ev = unnamed_addr alias void (ptr), ptr @_ZN6gmxapi9ExceptionC2Ev
@_ZN6gmxapi9ExceptionD1Ev = unnamed_addr alias void (ptr), ptr @_ZN6gmxapi9ExceptionD2Ev
@_ZN6gmxapi9ExceptionC1ERKS0_ = unnamed_addr alias void (ptr, ptr), ptr @_ZN6gmxapi9ExceptionC2ERKS0_
@_ZN6gmxapi9ExceptionC1EOS0_ = unnamed_addr alias void (ptr, ptr), ptr @_ZN6gmxapi9ExceptionC2EOS0_

; Function Attrs: mustprogress nounwind uwtable
define void @_ZN6gmxapi9ExceptionD0Ev(ptr noundef nonnull align 8 dereferenceable(8) %0) unnamed_addr #0 align 2 {
  tail call void @_ZN6gmxapi9ExceptionD1Ev(ptr noundef nonnull align 8 dereferenceable(8) %0) #5
  tail call void @_ZdlPv(ptr noundef nonnull %0) #6
  ret void
}

; Function Attrs: mustprogress nofree norecurse nosync nounwind willreturn memory(none) uwtable
define noundef nonnull ptr @_ZNK6gmxapi9Exception4whatEv(ptr nocapture nonnull readnone align 8 %0) unnamed_addr #1 align 2 {
  ret ptr @.str
}

; Function Attrs: mustprogress nofree norecurse nosync nounwind willreturn memory(argmem: write) uwtable
define void @_ZN6gmxapi9ExceptionC2Ev(ptr nocapture noundef nonnull writeonly align 8 dereferenceable(8) %0) unnamed_addr #2 align 2 {
  store ptr getelementptr inbounds inrange(-16, 24) ({ [5 x ptr] }, ptr @_ZTVN6gmxapi9ExceptionE, i64 0, i32 0, i64 2), ptr %0, align 8
  ret void
}

; Function Attrs: mustprogress nounwind uwtable
define void @_ZN6gmxapi9ExceptionD2Ev(ptr noundef nonnull align 8 dereferenceable(8) %0) unnamed_addr #0 align 2 {
  tail call void @_ZNSt9exceptionD2Ev(ptr noundef nonnull align 8 dereferenceable(8) %0) #5
  ret void
}

; Function Attrs: nounwind
declare void @_ZNSt9exceptionD2Ev(ptr noundef nonnull align 8 dereferenceable(8)) unnamed_addr #3

; Function Attrs: nobuiltin nounwind
declare void @_ZdlPv(ptr noundef) local_unnamed_addr #4

; Function Attrs: mustprogress nofree norecurse nosync nounwind willreturn memory(argmem: write) uwtable
define void @_ZN6gmxapi9ExceptionC2ERKS0_(ptr nocapture noundef nonnull writeonly align 8 dereferenceable(8) %0, ptr nocapture nonnull readnone align 8 %1) unnamed_addr #2 align 2 {
  store ptr getelementptr inbounds inrange(-16, 24) ({ [5 x ptr] }, ptr @_ZTVN6gmxapi9ExceptionE, i64 0, i32 0, i64 2), ptr %0, align 8
  ret void
}

; Function Attrs: mustprogress nofree norecurse nosync nounwind willreturn memory(none) uwtable
define noundef nonnull align 8 dereferenceable(8) ptr @_ZN6gmxapi9ExceptionaSERKS0_(ptr noundef nonnull readnone returned align 8 dereferenceable(8) %0, ptr nocapture noundef nonnull readnone align 8 dereferenceable(8) %1) local_unnamed_addr #1 align 2 {
  ret ptr %0
}

; Function Attrs: mustprogress nofree norecurse nosync nounwind willreturn memory(argmem: write) uwtable
define void @_ZN6gmxapi9ExceptionC2EOS0_(ptr nocapture noundef nonnull writeonly align 8 dereferenceable(8) %0, ptr nocapture nonnull readnone align 8 %1) unnamed_addr #2 align 2 {
  store ptr getelementptr inbounds inrange(-16, 24) ({ [5 x ptr] }, ptr @_ZTVN6gmxapi9ExceptionE, i64 0, i32 0, i64 2), ptr %0, align 8
  ret void
}

; Function Attrs: mustprogress nofree norecurse nosync nounwind willreturn memory(none) uwtable
define noundef nonnull align 8 dereferenceable(8) ptr @_ZN6gmxapi9ExceptionaSEOS0_(ptr noundef nonnull readnone returned align 8 dereferenceable(8) %0, ptr nocapture noundef nonnull readnone align 8 dereferenceable(8) %1) local_unnamed_addr #1 align 2 {
  ret ptr %0
}


!llvm.module.flags = !{!0, !1, !2, !3, !4}

!0 = !{i32 1, !"wchar_size", i32 4}
!1 = !{i32 7, !"openmp", i32 51}
!2 = !{i32 8, !"PIC Level", i32 2}
!3 = !{i32 7, !"uwtable", i32 2}
!4 = !{i32 7, !"frame-pointer", i32 2}
